target datalayout = "e-m:e-p270:32:32-p271:32:32-p272:64:64-i64:64-i128:128-f80:128-n8:16:32:64-S128"
target triple = "x86_64-pc-linux-gnu"

%struct.HTTPContext = type { ptr, ptr, [8192 x i8], ptr, ptr, i32, i32, i64, i32, i64, i64, i64, ptr, ptr, %struct.HTTPAuthState, %struct.HTTPAuthState, ptr, ptr, ptr, ptr, ptr, ptr, ptr, i32, i32, i32, i32, i32, i32, ptr, i32, i32, i32, ptr, ptr, i32, i64, i64, ptr, ptr, ptr, i32, %struct.z_stream_s, ptr, ptr, i32, ptr, i32, i32, i32, i32, i32, ptr, i32, ptr, i32, i32, i32, i32, i32, i64, ptr, ptr, i64, i32, i32, i32, i32 }
%struct.HTTPAuthState = type { i32, [200 x i8], %struct.DigestParams, i32 }
%struct.DigestParams = type { [300 x i8], [10 x i8], [30 x i8], [300 x i8], [10 x i8], i32 }
%struct.z_stream_s = type { ptr, i32, i64, ptr, i32, i64, ptr, ptr, ptr, ptr, ptr, i32, i64, i64 }

; Function Attrs: inlinehint nounwind uwtable
define internal i32 @ffurl_read(ptr noundef %0, ptr noundef %1, i32 noundef %2) #7 {
  %4 = alloca ptr, align 8
  %5 = alloca ptr, align 8
  %6 = alloca i32, align 4
  store ptr %0, ptr %4, align 8, !tbaa !4
  store ptr %1, ptr %5, align 8, !tbaa !17
  store i32 %2, ptr %6, align 4, !tbaa !34
  %7 = load ptr, ptr %4, align 8, !tbaa !4
  %8 = load ptr, ptr %5, align 8, !tbaa !17
  %9 = load i32, ptr %6, align 4, !tbaa !34
  %10 = call i32 @ffurl_read2(ptr noundef %7, ptr noundef %8, i32 noundef %9)
  ret i32 %10
}

; Function Attrs: nounwind uwtable
define internal i32 @http_getc(ptr noundef %0) #0 {
  %2 = alloca i32, align 4
  %3 = alloca ptr, align 8
  %4 = alloca i32, align 4
  %5 = alloca i32, align 4
  store ptr %0, ptr %3, align 8, !tbaa !21
  call void @llvm.lifetime.start.p0(i64 4, ptr %4) #11
  %6 = load ptr, ptr %3, align 8, !tbaa !21
  %7 = getelementptr inbounds nuw %struct.HTTPContext, ptr %6, i32 0, i32 3
  %8 = load ptr, ptr %7, align 8, !tbaa !76
  %9 = load ptr, ptr %3, align 8, !tbaa !21
  %10 = getelementptr inbounds nuw %struct.HTTPContext, ptr %9, i32 0, i32 4
  %11 = load ptr, ptr %10, align 8, !tbaa !77
  %12 = icmp uge ptr %8, %11
  br i1 %12, label %13, label %45

13:                                               ; preds = %1
  %14 = load ptr, ptr %3, align 8, !tbaa !21
  %15 = getelementptr inbounds nuw %struct.HTTPContext, ptr %14, i32 0, i32 1
  %16 = load ptr, ptr %15, align 8, !tbaa !44
  %17 = load ptr, ptr %3, align 8, !tbaa !21
  %18 = getelementptr inbounds nuw %struct.HTTPContext, ptr %17, i32 0, i32 2
  %19 = getelementptr inbounds [8192 x i8], ptr %18, i64 0, i64 0
  %20 = call i32 @ffurl_read(ptr noundef %16, ptr noundef %19, i32 noundef 8192)
  store i32 %20, ptr %4, align 4, !tbaa !34
  %21 = load i32, ptr %4, align 4, !tbaa !34
  %22 = icmp slt i32 %21, 0
  br i1 %22, label %23, label %25

23:                                               ; preds = %13
  %24 = load i32, ptr %4, align 4, !tbaa !34
  store i32 %24, ptr %2, align 4
  store i32 1, ptr %5, align 4
  br label %52

25:                                               ; preds = %13
  %26 = load i32, ptr %4, align 4, !tbaa !34
  %27 = icmp eq i32 %26, 0
  br i1 %27, label %28, label %29

28:                                               ; preds = %25
  store i32 -541478725, ptr %2, align 4
  store i32 1, ptr %5, align 4
  br label %52

29:                                               ; preds = %25
  %30 = load ptr, ptr %3, align 8, !tbaa !21
  %31 = getelementptr inbounds nuw %struct.HTTPContext, ptr %30, i32 0, i32 2
  %32 = getelementptr inbounds [8192 x i8], ptr %31, i64 0, i64 0
  %33 = load ptr, ptr %3, align 8, !tbaa !21
  %34 = getelementptr inbounds nuw %struct.HTTPContext, ptr %33, i32 0, i32 3
  store ptr %32, ptr %34, align 8, !tbaa !76
  %35 = load ptr, ptr %3, align 8, !tbaa !21
  %36 = getelementptr inbounds nuw %struct.HTTPContext, ptr %35, i32 0, i32 2
  %37 = getelementptr inbounds [8192 x i8], ptr %36, i64 0, i64 0
  %38 = load i32, ptr %4, align 4, !tbaa !34
  %39 = sext i32 %38 to i64
  %40 = getelementptr inbounds i8, ptr %37, i64 %39
  %41 = load ptr, ptr %3, align 8, !tbaa !21
  %42 = getelementptr inbounds nuw %struct.HTTPContext, ptr %41, i32 0, i32 4
  store ptr %40, ptr %42, align 8, !tbaa !77
  br label %43

43:                                               ; preds = %29
  br label %44

44:                                               ; preds = %43
  br label %45

45:                                               ; preds = %44, %1
  %46 = load ptr, ptr %3, align 8, !tbaa !21
  %47 = getelementptr inbounds nuw %struct.HTTPContext, ptr %46, i32 0, i32 3
  %48 = load ptr, ptr %47, align 8, !tbaa !76
  %49 = getelementptr inbounds nuw i8, ptr %48, i32 1
  store ptr %49, ptr %47, align 8, !tbaa !76
  %50 = load i8, ptr %48, align 1, !tbaa !64
  %51 = zext i8 %50 to i32
  store i32 %51, ptr %2, align 4
  store i32 1, ptr %5, align 4
  br label %52

52:                                               ; preds = %45, %28, %23
  call void @llvm.lifetime.end.p0(i64 4, ptr %4) #11
  %53 = load i32, ptr %2, align 4
  ret i32 %53
}

; Function Attrs: nounwind uwtable
define internal i32 @http_get_line(ptr noundef %0, ptr noundef %1, i32 noundef %2) #0 {
  %4 = alloca i32, align 4
  %5 = alloca ptr, align 8
  %6 = alloca ptr, align 8
  %7 = alloca i32, align 4
  %8 = alloca i32, align 4
  %9 = alloca ptr, align 8
  %10 = alloca i32, align 4
  store ptr %0, ptr %5, align 8, !tbaa !21
  store ptr %1, ptr %6, align 8, !tbaa !17
  store i32 %2, ptr %7, align 4, !tbaa !34
  call void @llvm.lifetime.start.p0(i64 4, ptr %8) #11
  call void @llvm.lifetime.start.p0(i64 8, ptr %9) #11
  %11 = load ptr, ptr %6, align 8, !tbaa !17
  store ptr %11, ptr %9, align 8, !tbaa !17
  br label %12

12:                                               ; preds = %53, %3
  %13 = load ptr, ptr %5, align 8, !tbaa !21
  %14 = call i32 @http_getc(ptr noundef %13)
  store i32 %14, ptr %8, align 4, !tbaa !34
  %15 = load i32, ptr %8, align 4, !tbaa !34
  %16 = icmp slt i32 %15, 0
  br i1 %16, label %17, label %19

17:                                               ; preds = %12
  %18 = load i32, ptr %8, align 4, !tbaa !34
  store i32 %18, ptr %4, align 4
  store i32 1, ptr %10, align 4
  br label %54

19:                                               ; preds = %12
  %20 = load i32, ptr %8, align 4, !tbaa !34
  %21 = icmp eq i32 %20, 10
  br i1 %21, label %22, label %37

22:                                               ; preds = %19
  %23 = load ptr, ptr %9, align 8, !tbaa !17
  %24 = load ptr, ptr %6, align 8, !tbaa !17
  %25 = icmp ugt ptr %23, %24
  br i1 %25, label %26, label %35

26:                                               ; preds = %22
  %27 = load ptr, ptr %9, align 8, !tbaa !17
  %28 = getelementptr inbounds i8, ptr %27, i64 -1
  %29 = load i8, ptr %28, align 1, !tbaa !64
  %30 = sext i8 %29 to i32
  %31 = icmp eq i32 %30, 13
  br i1 %31, label %32, label %35

32:                                               ; preds = %26
  %33 = load ptr, ptr %9, align 8, !tbaa !17
  %34 = getelementptr inbounds i8, ptr %33, i32 -1
  store ptr %34, ptr %9, align 8, !tbaa !17
  br label %35

35:                                               ; preds = %32, %26, %22
  %36 = load ptr, ptr %9, align 8, !tbaa !17
  store i8 0, ptr %36, align 1, !tbaa !64
  store i32 0, ptr %4, align 4
  store i32 1, ptr %10, align 4
  br label %54

37:                                               ; preds = %19
  %38 = load ptr, ptr %9, align 8, !tbaa !17
  %39 = load ptr, ptr %6, align 8, !tbaa !17
  %40 = ptrtoint ptr %38 to i64
  %41 = ptrtoint ptr %39 to i64
  %42 = sub i64 %40, %41
  %43 = load i32, ptr %7, align 4, !tbaa !34
  %44 = sub nsw i32 %43, 1
  %45 = sext i32 %44 to i64
  %46 = icmp slt i64 %42, %45
  br i1 %46, label %47, label %52

47:                                               ; preds = %37
  %48 = load i32, ptr %8, align 4, !tbaa !34
  %49 = trunc i32 %48 to i8
  %50 = load ptr, ptr %9, align 8, !tbaa !17
  %51 = getelementptr inbounds nuw i8, ptr %50, i32 1
  store ptr %51, ptr %9, align 8, !tbaa !17
  store i8 %49, ptr %50, align 1, !tbaa !64
  br label %52

52:                                               ; preds = %47, %37
  br label %53

53:                                               ; preds = %52
  br label %12

54:                                               ; preds = %35, %17
  call void @llvm.lifetime.end.p0(i64 8, ptr %9) #11
  call void @llvm.lifetime.end.p0(i64 4, ptr %8) #11
  %55 = load i32, ptr %4, align 4
  ret i32 %55
}