; Function Attrs: nounwind uwtable
define internal fastcc void @http_get_line(ptr noundef %0, ptr noundef nonnull %1, i32 noundef range(i32 32, 4097) %2) unnamed_addr #2 {
  %4 = getelementptr inbounds nuw i8, ptr %0, i64 8208
  %5 = getelementptr inbounds nuw i8, ptr %0, i64 8216
  %6 = getelementptr inbounds nuw i8, ptr %0, i64 8
  %7 = getelementptr inbounds nuw i8, ptr %0, i64 16
  %8 = ptrtoint ptr %1 to i64
  %9 = add nsw i32 %2, -1
  %10 = zext nneg i32 %9 to i64
  br label %.outer

.outer:                                           ; preds = %35, %3
  %.0.ph = phi ptr [ %36, %35 ], [ %1, %3 ]
  %11 = ptrtoint ptr %.0.ph to i64
  %12 = sub i64 %11, %8
  %13 = icmp slt i64 %12, %10
  br label %14

14:                                               ; preds = %.outer, %34
  %15 = load ptr, ptr %4, align 8, !tbaa !73
  %16 = load ptr, ptr %5, align 8, !tbaa !74
  %.not.i = icmp ult ptr %15, %16
  br i1 %.not.i, label %http_getc.exit, label %17

17:                                               ; preds = %14
  %18 = load ptr, ptr %6, align 8, !tbaa !37
  %19 = tail call i32 @ffurl_read2(ptr noundef %18, ptr noundef nonnull %7, i32 noundef 8192) #15
  %or.cond = icmp slt i32 %19, 1
  br i1 %or.cond, label %http_getc.exit.thread, label %20

20:                                               ; preds = %17
  %21 = zext nneg i32 %19 to i64
  %22 = getelementptr inbounds nuw i8, ptr %7, i64 %21
  store ptr %22, ptr %5, align 8, !tbaa !74
  br label %http_getc.exit

http_getc.exit:                                   ; preds = %14, %20
  %23 = phi ptr [ %7, %20 ], [ %15, %14 ]
  %24 = getelementptr inbounds nuw i8, ptr %23, i64 1
  store ptr %24, ptr %4, align 8, !tbaa !73
  %25 = load i8, ptr %23, align 1, !tbaa !44
  %26 = icmp eq i8 %25, 10
  br i1 %26, label %27, label %34

27:                                               ; preds = %http_getc.exit
  %28 = icmp ugt ptr %.0.ph, %1
  br i1 %28, label %29, label %33

29:                                               ; preds = %27
  %30 = getelementptr inbounds i8, ptr %.0.ph, i64 -1
  %31 = load i8, ptr %30, align 1, !tbaa !44
  %32 = icmp eq i8 %31, 13
  %spec.select = select i1 %32, ptr %30, ptr %.0.ph
  br label %33

33:                                               ; preds = %29, %27
  %.1 = phi ptr [ %.0.ph, %27 ], [ %spec.select, %29 ]
  store i8 0, ptr %.1, align 1, !tbaa !44
  br label %http_getc.exit.thread

34:                                               ; preds = %http_getc.exit
  br i1 %13, label %35, label %14

35:                                               ; preds = %34
  %36 = getelementptr inbounds nuw i8, ptr %.0.ph, i64 1
  store i8 %25, ptr %.0.ph, align 1, !tbaa !44
  br label %.outer

http_getc.exit.thread:                            ; preds = %17, %33
  ret void
}